; Listing generated by Microsoft (R) Optimizing Compiler Version 15.00.30729.01 

include listing.inc

INCLUDELIB MSVCRT
INCLUDELIB OLDNAMES

PUBLIC	??_C@_01NOFIACDB@w?$AA@				; `string'
PUBLIC	??_C@_05IEIONIFO@Label?$AA@			; `string'
PUBLIC	??_C@_04NBAGBPGE@bias?$AA@			; `string'
PUBLIC	??_C@_0L@NKGDALND@nr_feature?$AA@		; `string'
PUBLIC	??_C@_08LFCCDFDG@nr_class?$AA@			; `string'
PUBLIC	??_C@_0L@PBGCNDPG@Parameters?$AA@		; `string'
_DATA	SEGMENT
field_names DQ	FLAT:??_C@_0L@PBGCNDPG@Parameters?$AA@
	DQ	FLAT:??_C@_08LFCCDFDG@nr_class?$AA@
	DQ	FLAT:??_C@_0L@NKGDALND@nr_feature?$AA@
	DQ	FLAT:??_C@_04NBAGBPGE@bias?$AA@
	DQ	FLAT:??_C@_05IEIONIFO@Label?$AA@
	DQ	FLAT:??_C@_01NOFIACDB@w?$AA@
_DATA	ENDS
;	COMDAT ??_C@_01NOFIACDB@w?$AA@
CONST	SEGMENT
??_C@_01NOFIACDB@w?$AA@ DB 'w', 00H			; `string'
CONST	ENDS
;	COMDAT ??_C@_05IEIONIFO@Label?$AA@
CONST	SEGMENT
??_C@_05IEIONIFO@Label?$AA@ DB 'Label', 00H		; `string'
CONST	ENDS
;	COMDAT ??_C@_04NBAGBPGE@bias?$AA@
CONST	SEGMENT
??_C@_04NBAGBPGE@bias?$AA@ DB 'bias', 00H		; `string'
CONST	ENDS
;	COMDAT ??_C@_0L@NKGDALND@nr_feature?$AA@
CONST	SEGMENT
??_C@_0L@NKGDALND@nr_feature?$AA@ DB 'nr_feature', 00H	; `string'
CONST	ENDS
;	COMDAT ??_C@_08LFCCDFDG@nr_class?$AA@
CONST	SEGMENT
??_C@_08LFCCDFDG@nr_class?$AA@ DB 'nr_class', 00H	; `string'
CONST	ENDS
;	COMDAT ??_C@_0L@PBGCNDPG@Parameters?$AA@
CONST	SEGMENT
??_C@_0L@PBGCNDPG@Parameters?$AA@ DB 'Parameters', 00H	; `string'
CONST	ENDS
PUBLIC	__real@0000000000000000
PUBLIC	model_to_matlab_structure
EXTRN	mxFree:PROC
EXTRN	mxSetField_730:PROC
EXTRN	mxDuplicateArray:PROC
EXTRN	mxCreateStructMatrix_730:PROC
EXTRN	mxGetPr:PROC
EXTRN	mxCreateDoubleMatrix_730:PROC
EXTRN	mxMalloc:PROC
EXTRN	_fltused:DWORD
;	COMDAT pdata
; File c:\users\brian c. becker\downloads\liblinear-1.7\liblinear-1.7\matlab\linear_model_matlab.c
pdata	SEGMENT
$pdata$model_to_matlab_structure DD imagerel $LN27
	DD	imagerel $LN27+24
	DD	imagerel $unwind$model_to_matlab_structure
pdata	ENDS
;	COMDAT pdata
pdata	SEGMENT
$pdata$0$model_to_matlab_structure DD imagerel $LN27+24
	DD	imagerel $LN27+391
	DD	imagerel $chain$0$model_to_matlab_structure
pdata	ENDS
;	COMDAT pdata
pdata	SEGMENT
$pdata$1$model_to_matlab_structure DD imagerel $LN27+391
	DD	imagerel $LN27+524
	DD	imagerel $chain$1$model_to_matlab_structure
pdata	ENDS
;	COMDAT pdata
pdata	SEGMENT
$pdata$2$model_to_matlab_structure DD imagerel $LN27+524
	DD	imagerel $LN27+613
	DD	imagerel $chain$2$model_to_matlab_structure
pdata	ENDS
;	COMDAT pdata
pdata	SEGMENT
$pdata$3$model_to_matlab_structure DD imagerel $LN27+613
	DD	imagerel $LN27+677
	DD	imagerel $chain$3$model_to_matlab_structure
pdata	ENDS
;	COMDAT xdata
xdata	SEGMENT
$chain$3$model_to_matlab_structure DD 021H
	DD	imagerel $LN27
	DD	imagerel $LN27+24
	DD	imagerel $unwind$model_to_matlab_structure
xdata	ENDS
;	COMDAT xdata
xdata	SEGMENT
$chain$2$model_to_matlab_structure DD 021H
	DD	imagerel $LN27+24
	DD	imagerel $LN27+391
	DD	imagerel $chain$0$model_to_matlab_structure
xdata	ENDS
;	COMDAT xdata
xdata	SEGMENT
$chain$1$model_to_matlab_structure DD 020521H
	DD	0ac405H
	DD	imagerel $LN27+24
	DD	imagerel $LN27+391
	DD	imagerel $chain$0$model_to_matlab_structure
xdata	ENDS
;	COMDAT xdata
xdata	SEGMENT
$chain$0$model_to_matlab_structure DD 020521H
	DD	0be405H
	DD	imagerel $LN27
	DD	imagerel $LN27+24
	DD	imagerel $unwind$model_to_matlab_structure
xdata	ENDS
;	COMDAT xdata
xdata	SEGMENT
$unwind$model_to_matlab_structure DD 081001H
	DD	0c3410H
	DD	0f00c3210H
	DD	07008d00aH
	DD	050066007H
xdata	ENDS
;	COMDAT __real@0000000000000000
CONST	SEGMENT
__real@0000000000000000 DQ 00000000000000000r	; 0
; Function compile flags: /Ogtp
CONST	ENDS
;	COMDAT model_to_matlab_structure
_TEXT	SEGMENT
plhs$ = 80
model_$ = 88
model_to_matlab_structure PROC				; COMDAT
; Line 25
$LN27:
	mov	QWORD PTR [rsp+24], rbx
	push	rbp
	push	rsi
	push	rdi
	push	r13
	push	r15
	sub	rsp, 32					; 00000020H
	mov	r15, rcx
; Line 33
	mov	ecx, 48					; 00000030H
	mov	QWORD PTR [rsp+88], r14
	mov	rbx, rdx
	call	mxMalloc
; Line 37
	mov	edx, 1
	mov	rcx, rdx
	xor	r8d, r8d
	mov	r13, rax
	call	mxCreateDoubleMatrix_730
; Line 38
	mov	rcx, rax
	mov	QWORD PTR [r13], rax
	call	mxGetPr
; Line 43
	mov	edx, 1
	xor	r8d, r8d
	movd	xmm0, DWORD PTR [rbx]
	mov	rcx, rdx
	cvtdq2pd xmm0, xmm0
	movsdx	QWORD PTR [rax], xmm0
	call	mxCreateDoubleMatrix_730
; Line 44
	mov	rcx, rax
	mov	QWORD PTR [r13+8], rax
	call	mxGetPr
; Line 45
	movd	xmm0, DWORD PTR [rbx+48]
	cvtdq2pd xmm0, xmm0
	movsdx	QWORD PTR [rax], xmm0
; Line 48
	cmp	DWORD PTR [rbx+48], 2
	jne	SHORT $LN15@model_to_m
	cmp	DWORD PTR [rbx], 4
	je	SHORT $LN15@model_to_m
; Line 49
	mov	ebp, 1
; Line 50
	jmp	SHORT $LN14@model_to_m
$LN15@model_to_m:
; Line 51
	mov	ebp, DWORD PTR [rbx+48]
$LN14@model_to_m:
; Line 54
	mov	edx, 1
	xor	r8d, r8d
	mov	rcx, rdx
	call	mxCreateDoubleMatrix_730
; Line 55
	mov	rcx, rax
	mov	QWORD PTR [r13+16], rax
	call	mxGetPr
; Line 60
	mov	edx, 1
	xor	r8d, r8d
	movd	xmm0, DWORD PTR [rbx+52]
	mov	rcx, rdx
	cvtdq2pd xmm0, xmm0
	movsdx	QWORD PTR [rax], xmm0
	call	mxCreateDoubleMatrix_730
; Line 61
	mov	rcx, rax
	mov	QWORD PTR [r13+24], rax
	call	mxGetPr
; Line 62
	mov	rcx, QWORD PTR [rbx+72]
	mov	QWORD PTR [rax], rcx
; Line 65
	movsdx	xmm0, QWORD PTR [rbx+72]
	comisd	xmm0, QWORD PTR __real@0000000000000000
	jb	SHORT $LN13@model_to_m
; Line 66
	mov	edi, DWORD PTR [rbx+52]
	inc	edi
; Line 67
	jmp	SHORT $LN12@model_to_m
$LN13@model_to_m:
; Line 68
	mov	edi, DWORD PTR [rbx+52]
$LN12@model_to_m:
; Line 72
	xor	esi, esi
	cmp	QWORD PTR [rbx+64], rsi
	je	SHORT $LN11@model_to_m
; Line 74
	movsxd	rcx, DWORD PTR [rbx+48]
	lea	edx, QWORD PTR [rsi+1]
	xor	r8d, r8d
	call	mxCreateDoubleMatrix_730
; Line 75
	mov	rcx, rax
	mov	QWORD PTR [r13+32], rax
	call	mxGetPr
; Line 76
	cmp	DWORD PTR [rbx+48], esi
	mov	r8d, esi
	jle	SHORT $LN7@model_to_m
; Line 74
	mov	rdx, rsi
$LL10@model_to_m:
; Line 77
	mov	rcx, QWORD PTR [rbx+64]
	inc	r8d
	add	rax, 8
	add	rdx, 4
	movd	xmm0, DWORD PTR [rdx+rcx-4]
	cvtdq2pd xmm0, xmm0
	movsdx	QWORD PTR [rax-8], xmm0
	cmp	r8d, DWORD PTR [rbx+48]
	jl	SHORT $LL10@model_to_m
; Line 79
	jmp	SHORT $LN7@model_to_m
$LN11@model_to_m:
; Line 80
	xor	r8d, r8d
	xor	edx, edx
	xor	ecx, ecx
	call	mxCreateDoubleMatrix_730
	mov	QWORD PTR [r13+32], rax
$LN7@model_to_m:
; Line 84
	movsxd	rdx, edi
	movsxd	rcx, ebp
	xor	r8d, r8d
	call	mxCreateDoubleMatrix_730
; Line 85
	mov	rcx, rax
	mov	QWORD PTR [r13+40], rax
	call	mxGetPr
; Line 86
	mov	r14, rsi
	mov	r11, rax
	imul	edi, ebp
	cmp	edi, 4
	jl	$LC25@model_to_m
	lea	r8, QWORD PTR [rax+16]
	mov	QWORD PTR [rsp+80], r12
; Line 94
	mov	ebp, 8
	sub	rbp, rax
	mov	r12, -16
	mov	r10d, 16
	sub	r12, rax
	lea	eax, DWORD PTR [rdi-4]
	shr	eax, 2
	inc	eax
	mov	r9d, eax
	lea	esi, DWORD PTR [rax*4]
	lea	r14, QWORD PTR [rax*4]
	npad	2
$LL26@model_to_m:
	mov	rax, QWORD PTR [rbx+56]
	lea	rdx, QWORD PTR [r12+r8]
	add	r10, 32					; 00000020H
	mov	rcx, QWORD PTR [rdx+rax]
	mov	QWORD PTR [r8-16], rcx
	mov	rax, QWORD PTR [rbx+56]
	mov	rcx, QWORD PTR [rdx+rax+8]
	mov	QWORD PTR [r8-8], rcx
	mov	rax, QWORD PTR [rbx+56]
	mov	rcx, QWORD PTR [r10+rax-32]
	mov	QWORD PTR [r8], rcx
	mov	rax, QWORD PTR [rbx+56]
	lea	rcx, QWORD PTR [r8+rbp]
	mov	rcx, QWORD PTR [rcx+rax]
	add	r8, 32					; 00000020H
	sub	r9, 1
	mov	QWORD PTR [r8-24], rcx
	jne	SHORT $LL26@model_to_m
	mov	r12, QWORD PTR [rsp+80]
$LC25@model_to_m:
; Line 86
	cmp	esi, edi
	jge	SHORT $LN24@model_to_m
	sub	edi, esi
	lea	r8, QWORD PTR [r14*8]
	mov	r9d, edi
$LC6@model_to_m:
; Line 87
	mov	rax, QWORD PTR [rbx+56]
	add	r8, 8
	sub	r9, 1
	mov	rdx, QWORD PTR [r8+rax-8]
	mov	QWORD PTR [r8+r11-8], rdx
	jne	SHORT $LC6@model_to_m
$LN24@model_to_m:
; Line 91
	mov	edx, 1
	lea	rbx, OFFSET FLAT:field_names
	lea	r8d, QWORD PTR [rdx+5]
	mov	r9, rbx
	mov	rcx, rdx
	call	mxCreateStructMatrix_730
	mov	r14, QWORD PTR [rsp+88]
; Line 94
	mov	rdi, r13
	sub	rdi, rbx
	lea	rbp, OFFSET FLAT:field_names+48
	mov	rsi, rax
$LL3@model_to_m:
; Line 95
	mov	rcx, QWORD PTR [rdi+rbx]
	call	mxDuplicateArray
	mov	r8, QWORD PTR [rbx]
	xor	edx, edx
	mov	r9, rax
	mov	rcx, rsi
	call	mxSetField_730
	add	rbx, 8
	cmp	rbx, rbp
	jl	SHORT $LL3@model_to_m
; Line 98
	mov	rcx, r13
	mov	QWORD PTR [r15], rsi
	call	mxFree
; Line 101
	mov	rbx, QWORD PTR [rsp+96]
	xor	eax, eax
	add	rsp, 32					; 00000020H
	pop	r15
	pop	r13
	pop	rdi
	pop	rsi
	pop	rbp
	ret	0
model_to_matlab_structure ENDP
_TEXT	ENDS
PUBLIC	matlab_matrix_to_model
EXTRN	__imp_malloc:PROC
EXTRN	mxGetFieldByNumber_730:PROC
EXTRN	mxGetNumberOfFields:PROC
;	COMDAT pdata
pdata	SEGMENT
$pdata$matlab_matrix_to_model DD imagerel $LN25
	DD	imagerel $LN25+584
	DD	imagerel $unwind$matlab_matrix_to_model
pdata	ENDS
;	COMDAT xdata
xdata	SEGMENT
$unwind$matlab_matrix_to_model DD 0c1e01H
	DD	0b741eH
	DD	0a641eH
	DD	09541eH
	DD	08341eH
	DD	0e01a321eH
	DD	0c016d018H
; Function compile flags: /Ogtp
xdata	ENDS
;	COMDAT matlab_matrix_to_model
_TEXT	SEGMENT
model_$ = 64
matlab_struct$ = 72
matlab_matrix_to_model PROC				; COMDAT
; Line 104
$LN25:
	mov	QWORD PTR [rsp+8], rbx
	mov	QWORD PTR [rsp+16], rbp
	mov	QWORD PTR [rsp+24], rsi
	mov	QWORD PTR [rsp+32], rdi
	push	r12
	push	r13
	push	r14
	sub	rsp, 32					; 00000020H
	mov	rbx, rcx
; Line 112
	mov	rcx, rdx
	mov	r14, rdx
	call	mxGetNumberOfFields
; Line 113
	movsxd	r13, eax
	lea	rcx, QWORD PTR [r13*8]
	call	mxMalloc
; Line 115
	xor	ebp, ebp
	mov	r12, rax
	mov	esi, ebp
	mov	rdi, rbp
	test	r13, r13
	jle	SHORT $LN11@matlab_mat
	npad	5
$LL13@matlab_mat:
; Line 116
	mov	r8d, esi
	xor	edx, edx
	mov	rcx, r14
	call	mxGetFieldByNumber_730
	inc	rdi
	inc	esi
	cmp	rdi, r13
	mov	QWORD PTR [r12+rdi*8-8], rax
	jl	SHORT $LL13@matlab_mat
$LN11@matlab_mat:
; Line 118
	mov	DWORD PTR [rbx+48], ebp
; Line 120
	mov	DWORD PTR [rbx+52], ebp
; Line 121
	mov	QWORD PTR [rbx+56], rbp
; Line 122
	mov	QWORD PTR [rbx+64], rbp
; Line 125
	mov	rcx, QWORD PTR [r12]
	call	mxGetPr
; Line 126
	cvttsd2si ecx, QWORD PTR [rax]
	mov	DWORD PTR [rbx], ecx
; Line 130
	mov	rcx, QWORD PTR [r12+8]
	call	mxGetPr
; Line 131
	cvttsd2si r13d, QWORD PTR [rax]
	mov	DWORD PTR [rbx+48], r13d
; Line 134
	cmp	r13d, 2
	jne	SHORT $LN10@matlab_mat
	cmp	DWORD PTR [rbx], 4
	je	SHORT $LN10@matlab_mat
; Line 135
	mov	r13d, 1
$LN10@matlab_mat:
; Line 140
	mov	rcx, QWORD PTR [r12+16]
	call	mxGetPr
; Line 141
	cvttsd2si ecx, QWORD PTR [rax]
	mov	DWORD PTR [rbx+52], ecx
; Line 145
	mov	rcx, QWORD PTR [r12+24]
	call	mxGetPr
; Line 150
	mov	esi, DWORD PTR [rbx+52]
	cvttsd2si ecx, QWORD PTR [rax]
	movd	xmm0, ecx
	cvtdq2pd xmm0, xmm0
	comisd	xmm0, QWORD PTR __real@0000000000000000
	movsdx	QWORD PTR [rbx+72], xmm0
	jb	SHORT $LN7@matlab_mat
	inc	esi
$LN7@matlab_mat:
; Line 155
	mov	rcx, QWORD PTR [r12+32]
	call	mxGetPr
; Line 156
	movsxd	rcx, DWORD PTR [rbx+48]
	shl	rcx, 2
	mov	rdi, rax
	call	QWORD PTR __imp_malloc
; Line 157
	cmp	DWORD PTR [rbx+48], ebp
	mov	r8d, ebp
	mov	QWORD PTR [rbx+64], rax
	jle	SHORT $LN4@matlab_mat
; Line 155
	mov	rdx, rbp
	npad	14
$LL6@matlab_mat:
; Line 158
	cvttsd2si ecx, QWORD PTR [rdi]
	mov	rax, QWORD PTR [rbx+64]
	inc	r8d
	add	rdx, 4
	add	rdi, 8
	mov	DWORD PTR [rdx+rax-4], ecx
	cmp	r8d, DWORD PTR [rbx+48]
	jl	SHORT $LL6@matlab_mat
$LN4@matlab_mat:
; Line 161
	mov	rcx, QWORD PTR [r12+40]
	call	mxGetPr
	mov	rdi, rax
; Line 162
	imul	esi, r13d
	movsxd	rcx, esi
	shl	rcx, 3
	call	QWORD PTR __imp_malloc
; Line 163
	cmp	esi, 4
	mov	r14, rbp
	mov	QWORD PTR [rbx+56], rax
	jl	$LC23@matlab_mat
	lea	eax, DWORD PTR [rsi-4]
	mov	r10d, 8
	mov	r11, -16
	shr	eax, 2
	sub	r10, rdi
	sub	r11, rdi
	inc	eax
	mov	r13d, 16
	lea	r8, QWORD PTR [rdi+16]
	lea	ebp, DWORD PTR [rax*4]
	lea	r14, QWORD PTR [rax*4]
	mov	r9d, eax
	npad	14
$LL24@matlab_mat:
; Line 164
	mov	rax, QWORD PTR [r8-16]
	mov	rcx, QWORD PTR [rbx+56]
	lea	rdx, QWORD PTR [r11+r8]
	mov	QWORD PTR [rdx+rcx], rax
	mov	rax, QWORD PTR [r8-8]
	mov	rcx, QWORD PTR [rbx+56]
	mov	QWORD PTR [rdx+rcx+8], rax
	mov	rax, QWORD PTR [r8]
	mov	rcx, QWORD PTR [rbx+56]
	mov	QWORD PTR [r13+rcx], rax
	mov	rax, QWORD PTR [r8+8]
	mov	rcx, QWORD PTR [rbx+56]
	lea	rdx, QWORD PTR [r10+r8]
	add	r13, 32					; 00000020H
	add	r8, 32					; 00000020H
	sub	r9, 1
	mov	QWORD PTR [rdx+rcx], rax
	jne	SHORT $LL24@matlab_mat
$LC23@matlab_mat:
; Line 163
	cmp	ebp, esi
	jge	SHORT $LN22@matlab_mat
	sub	esi, ebp
	lea	rdx, QWORD PTR [r14*8]
	mov	r8d, esi
$LC3@matlab_mat:
; Line 164
	mov	rax, QWORD PTR [rdx+rdi]
	mov	rcx, QWORD PTR [rbx+56]
	add	rdx, 8
	sub	r8, 1
	mov	QWORD PTR [rdx+rcx-8], rax
	jne	SHORT $LC3@matlab_mat
$LN22@matlab_mat:
; Line 166
	mov	rcx, r12
	call	mxFree
; Line 169
	mov	rbx, QWORD PTR [rsp+64]
	mov	rbp, QWORD PTR [rsp+72]
	mov	rsi, QWORD PTR [rsp+80]
	mov	rdi, QWORD PTR [rsp+88]
	xor	eax, eax
	add	rsp, 32					; 00000020H
	pop	r14
	pop	r13
	pop	r12
	ret	0
matlab_matrix_to_model ENDP
_TEXT	ENDS
END
